target datalayout = "e-m:e-p270:32:32-p271:32:32-p272:64:64-i64:64-i128:128-f80:128-n8:16:32:64-S128"
target triple = "x86_64-pc-linux-gnu"

%struct.prov_cipher_ctx_st = type { [16 x i8], [16 x i8], [16 x i8], ptr, %union.anon, i32, i64, i64, i64, i64, i32, i8, i32, ptr, i32, i64, i32, i64, i32, ptr, ptr, ptr }
%union.anon = type { ptr }

; Function Attrs: nounwind uwtable
define internal i32 @cipher_hw_aesni_ecb(ptr noundef %0, ptr noundef %1, ptr noundef %2, i64 noundef %3) #0 {
  %5 = alloca i32, align 4
  %6 = alloca ptr, align 8
  %7 = alloca ptr, align 8
  %8 = alloca ptr, align 8
  %9 = alloca i64, align 8
  store ptr %0, ptr %6, align 8, !tbaa !9
  store ptr %1, ptr %7, align 8, !tbaa !12
  store ptr %2, ptr %8, align 8, !tbaa !12
  store i64 %3, ptr %9, align 8, !tbaa !3
  %10 = load i64, ptr %9, align 8, !tbaa !3
  %11 = load ptr, ptr %6, align 8, !tbaa !9
  %12 = getelementptr inbounds nuw %struct.prov_cipher_ctx_st, ptr %11, i32 0, i32 8
  %13 = load i64, ptr %12, align 8, !tbaa !29
  %14 = icmp ult i64 %10, %13
  br i1 %14, label %15, label %16

15:                                               ; preds = %4
  store i32 1, ptr %5, align 4
  br label %29

16:                                               ; preds = %4
  %17 = load ptr, ptr %8, align 8, !tbaa !12
  %18 = load ptr, ptr %7, align 8, !tbaa !12
  %19 = load i64, ptr %9, align 8, !tbaa !3
  %20 = load ptr, ptr %6, align 8, !tbaa !9
  %21 = getelementptr inbounds nuw %struct.prov_cipher_ctx_st, ptr %20, i32 0, i32 20
  %22 = load ptr, ptr %21, align 8, !tbaa !18
  %23 = load ptr, ptr %6, align 8, !tbaa !9
  %24 = getelementptr inbounds nuw %struct.prov_cipher_ctx_st, ptr %23, i32 0, i32 11
  %25 = load i8, ptr %24, align 4
  %26 = lshr i8 %25, 1
  %27 = and i8 %26, 1
  %28 = zext i8 %27 to i32
  call void @aesni_ecb_encrypt(ptr noundef %17, ptr noundef %18, i64 noundef %19, ptr noundef %22, i32 noundef %28)
  store i32 1, ptr %5, align 4
  br label %29

29:                                               ; preds = %16, %15
  %30 = load i32, ptr %5, align 4
  ret i32 %30
}