; Function Attrs: nounwind uwtable
define internal noundef i32 @cipher_hw_aesni_ecb(ptr noundef readonly captures(none) %0, ptr noundef %1, ptr noundef %2, i64 noundef %3) #1 {
  %5 = getelementptr inbounds nuw i8, ptr %0, i64 88
  %6 = load i64, ptr %5, align 8, !tbaa !23
  %7 = icmp ult i64 %3, %6
  br i1 %7, label %16, label %8

8:                                                ; preds = %4
  %9 = getelementptr inbounds nuw i8, ptr %0, i64 176
  %10 = load ptr, ptr %9, align 8, !tbaa !7
  %11 = getelementptr inbounds nuw i8, ptr %0, i64 108
  %12 = load i8, ptr %11, align 4
  %13 = lshr i8 %12, 1
  %14 = and i8 %13, 1
  %15 = zext nneg i8 %14 to i32
  tail call void @aesni_ecb_encrypt(ptr noundef %2, ptr noundef %1, i64 noundef %3, ptr noundef %10, i32 noundef %15) #5
  br label %16

16:                                               ; preds = %4, %8
  ret i32 1
}